target datalayout = "e-m:e-p270:32:32-p271:32:32-p272:64:64-i64:64-i128:128-f80:128-n8:16:32:64-S128"
target triple = "x86_64-pc-linux-gnu"

%struct.SDL_Keymap = type { ptr, ptr, i8, i8, i8, i8, i8 }

; Function Attrs: nounwind uwtable
define internal zeroext i16 @NormalizeModifierStateForKeymap(i16 noundef zeroext %0) #0 {
  %2 = alloca i16, align 2
  store i16 %0, ptr %2, align 2
  %3 = load i16, ptr %2, align 2
  %4 = zext i16 %3 to i32
  %5 = and i32 %4, 25351
  %6 = trunc i32 %5 to i16
  store i16 %6, ptr %2, align 2
  %7 = load i16, ptr %2, align 2
  %8 = zext i16 %7 to i32
  %9 = and i32 %8, 3
  %10 = icmp ne i32 %9, 0
  br i1 %10, label %11, label %16

11:                                               ; preds = %1
  %12 = load i16, ptr %2, align 2
  %13 = zext i16 %12 to i32
  %14 = or i32 %13, 3
  %15 = trunc i32 %14 to i16
  store i16 %15, ptr %2, align 2
  br label %16

16:                                               ; preds = %11, %1
  %17 = load i16, ptr %2, align 2
  %18 = zext i16 %17 to i32
  %19 = and i32 %18, 768
  %20 = icmp ne i32 %19, 0
  br i1 %20, label %21, label %26

21:                                               ; preds = %16
  %22 = load i16, ptr %2, align 2
  %23 = zext i16 %22 to i32
  %24 = or i32 %23, 768
  %25 = trunc i32 %24 to i16
  store i16 %25, ptr %2, align 2
  br label %26

26:                                               ; preds = %21, %16
  %27 = load i16, ptr %2, align 2
  ret i16 %27
}

; Function Attrs: nounwind uwtable
define hidden void @SDL_SetKeymapEntry(ptr noundef %0, i32 noundef %1, i16 noundef zeroext %2, i32 noundef %3) #0 {
  %5 = alloca ptr, align 8
  %6 = alloca i32, align 4
  %7 = alloca i16, align 2
  %8 = alloca i32, align 4
  %9 = alloca i32, align 4
  %10 = alloca ptr, align 8
  %11 = alloca i32, align 4
  %12 = alloca i32, align 4
  %13 = alloca i8, align 1
  %14 = alloca i32, align 4
  %15 = alloca i16, align 2
  store ptr %0, ptr %5, align 8
  store i32 %1, ptr %6, align 4
  store i16 %2, ptr %7, align 2
  store i32 %3, ptr %8, align 4
  %16 = load ptr, ptr %5, align 8
  %17 = icmp ne ptr %16, null
  br i1 %17, label %19, label %18

18:                                               ; preds = %4
  br label %95

19:                                               ; preds = %4
  %20 = load i16, ptr %7, align 2
  %21 = call zeroext i16 @NormalizeModifierStateForKeymap(i16 noundef zeroext %20)
  store i16 %21, ptr %7, align 2
  call void @llvm.lifetime.start.p0(i64 4, ptr %9) #4
  %22 = load i16, ptr %7, align 2
  %23 = zext i16 %22 to i32
  %24 = shl i32 %23, 16
  %25 = load i32, ptr %6, align 4
  %26 = or i32 %24, %25
  store i32 %26, ptr %9, align 4
  call void @llvm.lifetime.start.p0(i64 8, ptr %10) #4
  %27 = load ptr, ptr %5, align 8
  %28 = getelementptr inbounds nuw %struct.SDL_Keymap, ptr %27, i32 0, i32 0
  %29 = load ptr, ptr %28, align 8
  %30 = load i32, ptr %9, align 4
  %31 = zext i32 %30 to i64
  %32 = inttoptr i64 %31 to ptr
  %33 = call zeroext i1 @SDL_FindInHashTable(ptr noundef %29, ptr noundef %32, ptr noundef %10)
  br i1 %33, label %34, label %46

34:                                               ; preds = %19
  call void @llvm.lifetime.start.p0(i64 4, ptr %11) #4
  %35 = load ptr, ptr %10, align 8
  %36 = ptrtoint ptr %35 to i64
  %37 = trunc i64 %36 to i32
  store i32 %37, ptr %11, align 4
  %38 = load i32, ptr %11, align 4
  %39 = load i32, ptr %8, align 4
  %40 = icmp eq i32 %38, %39
  br i1 %40, label %41, label %42

41:                                               ; preds = %34
  store i32 1, ptr %12, align 4
  br label %43

42:                                               ; preds = %34
  store i32 0, ptr %12, align 4
  br label %43

43:                                               ; preds = %42, %41
  call void @llvm.lifetime.end.p0(i64 4, ptr %11) #4
  %44 = load i32, ptr %12, align 4
  switch i32 %44, label %93 [
    i32 0, label %45
  ]

45:                                               ; preds = %43
  br label %46

46:                                               ; preds = %45, %19
  %47 = load ptr, ptr %5, align 8
  %48 = getelementptr inbounds nuw %struct.SDL_Keymap, ptr %47, i32 0, i32 0
  %49 = load ptr, ptr %48, align 8
  %50 = load i32, ptr %9, align 4
  %51 = zext i32 %50 to i64
  %52 = inttoptr i64 %51 to ptr
  %53 = load i32, ptr %8, align 4
  %54 = zext i32 %53 to i64
  %55 = inttoptr i64 %54 to ptr
  %56 = call zeroext i1 @SDL_InsertIntoHashTable(ptr noundef %49, ptr noundef %52, ptr noundef %55, i1 noundef zeroext true)
  call void @llvm.lifetime.start.p0(i64 1, ptr %13) #4
  store i8 1, ptr %13, align 1
  %57 = load ptr, ptr %5, align 8
  %58 = getelementptr inbounds nuw %struct.SDL_Keymap, ptr %57, i32 0, i32 1
  %59 = load ptr, ptr %58, align 8
  %60 = load i32, ptr %8, align 4
  %61 = zext i32 %60 to i64
  %62 = inttoptr i64 %61 to ptr
  %63 = call zeroext i1 @SDL_FindInHashTable(ptr noundef %59, ptr noundef %62, ptr noundef %10)
  br i1 %63, label %64, label %78

64:                                               ; preds = %46
  call void @llvm.lifetime.start.p0(i64 4, ptr %14) #4
  %65 = load ptr, ptr %10, align 8
  %66 = ptrtoint ptr %65 to i64
  %67 = trunc i64 %66 to i32
  store i32 %67, ptr %14, align 4
  call void @llvm.lifetime.start.p0(i64 2, ptr %15) #4
  %68 = load i32, ptr %14, align 4
  %69 = lshr i32 %68, 16
  %70 = trunc i32 %69 to i16
  store i16 %70, ptr %15, align 2
  %71 = load i16, ptr %15, align 2
  %72 = zext i16 %71 to i32
  %73 = load i16, ptr %7, align 2
  %74 = zext i16 %73 to i32
  %75 = icmp sle i32 %72, %74
  br i1 %75, label %76, label %77

76:                                               ; preds = %64
  store i8 0, ptr %13, align 1
  br label %77

77:                                               ; preds = %76, %64
  call void @llvm.lifetime.end.p0(i64 2, ptr %15) #4
  call void @llvm.lifetime.end.p0(i64 4, ptr %14) #4
  br label %78

78:                                               ; preds = %77, %46
  %79 = load i8, ptr %13, align 1, !range !3, !noundef !4
  %80 = trunc i8 %79 to i1
  br i1 %80, label %81, label %92

81:                                               ; preds = %78
  %82 = load ptr, ptr %5, align 8
  %83 = getelementptr inbounds nuw %struct.SDL_Keymap, ptr %82, i32 0, i32 1
  %84 = load ptr, ptr %83, align 8
  %85 = load i32, ptr %8, align 4
  %86 = zext i32 %85 to i64
  %87 = inttoptr i64 %86 to ptr
  %88 = load i32, ptr %9, align 4
  %89 = zext i32 %88 to i64
  %90 = inttoptr i64 %89 to ptr
  %91 = call zeroext i1 @SDL_InsertIntoHashTable(ptr noundef %84, ptr noundef %87, ptr noundef %90, i1 noundef zeroext true)
  br label %92

92:                                               ; preds = %81, %78
  call void @llvm.lifetime.end.p0(i64 1, ptr %13) #4
  store i32 0, ptr %12, align 4
  br label %93

93:                                               ; preds = %92, %43
  call void @llvm.lifetime.end.p0(i64 8, ptr %10) #4
  call void @llvm.lifetime.end.p0(i64 4, ptr %9) #4
  %94 = load i32, ptr %12, align 4
  switch i32 %94, label %96 [
    i32 0, label %95
    i32 1, label %95
  ]

95:                                               ; preds = %18, %93, %93
  ret void

96:                                               ; preds = %93
  unreachable
}