; Function Attrs: nounwind uwtable
define hidden void @SDL_SetKeymapEntry(ptr noundef readonly captures(address_is_null) %0, i32 noundef %1, i16 noundef zeroext %2, i32 noundef %3) local_unnamed_addr #0 {
  %5 = alloca ptr, align 8
  %.not = icmp eq ptr %0, null
  br i1 %.not, label %38, label %6

6:                                                ; preds = %4
  %7 = and i16 %2, 25351
  %8 = and i16 %2, 3
  %.not.i = icmp eq i16 %8, 0
  %9 = or i16 %7, 3
  %spec.select.i = select i1 %.not.i, i16 %7, i16 %9
  %10 = and i16 %spec.select.i, 768
  %.not6.i = icmp eq i16 %10, 0
  %11 = or i16 %spec.select.i, 768
  %.1.i = select i1 %.not6.i, i16 %spec.select.i, i16 %11
  %12 = zext nneg i16 %.1.i to i32
  %13 = shl nuw nsw i32 %12, 16
  %14 = or i32 %13, %1
  call void @llvm.lifetime.start.p0(i64 8, ptr nonnull %5) #5
  %15 = load ptr, ptr %0, align 8
  %16 = zext i32 %14 to i64
  %17 = inttoptr i64 %16 to ptr
  %18 = call zeroext i1 @SDL_FindInHashTable(ptr noundef %15, ptr noundef %17, ptr noundef nonnull %5) #5
  %19 = load ptr, ptr %5, align 8
  %20 = ptrtoint ptr %19 to i64
  %21 = trunc i64 %20 to i32
  %.not22 = icmp eq i32 %3, %21
  %or.cond = select i1 %18, i1 %.not22, i1 false
  br i1 %or.cond, label %37, label %22

22:                                               ; preds = %6
  %23 = load ptr, ptr %0, align 8
  %24 = zext i32 %3 to i64
  %25 = inttoptr i64 %24 to ptr
  %26 = call zeroext i1 @SDL_InsertIntoHashTable(ptr noundef %23, ptr noundef %17, ptr noundef %25, i1 noundef zeroext true) #5
  %27 = getelementptr inbounds nuw i8, ptr %0, i64 8
  %28 = load ptr, ptr %27, align 8
  %29 = call zeroext i1 @SDL_FindInHashTable(ptr noundef %28, ptr noundef %25, ptr noundef nonnull %5) #5
  %30 = load ptr, ptr %5, align 8
  %31 = ptrtoint ptr %30 to i64
  %32 = trunc i64 %31 to i32
  %33 = lshr i32 %32, 16
  %.not23 = icmp samesign ule i32 %33, %12
  %.020.not = select i1 %29, i1 %.not23, i1 false
  br i1 %.020.not, label %37, label %34

34:                                               ; preds = %22
  %35 = load ptr, ptr %27, align 8
  %36 = call zeroext i1 @SDL_InsertIntoHashTable(ptr noundef %35, ptr noundef %25, ptr noundef %17, i1 noundef zeroext true) #5
  br label %37

37:                                               ; preds = %6, %22, %34
  call void @llvm.lifetime.end.p0(i64 8, ptr nonnull %5) #5
  br label %38

38:                                               ; preds = %4, %37
  ret void
}